target datalayout = "e-m:e-p270:32:32-p271:32:32-p272:64:64-i64:64-i128:128-f80:128-n8:16:32:64-S128"
target triple = "x86_64-unknown-linux-gnu"

%struct.UEnumeration = type { ptr, ptr, ptr, ptr, ptr, ptr, ptr }

; Function Attrs: mustprogress uwtable
define internal void @_ZL9enumCloseP12UEnumeration(ptr noundef %en) #0 {
entry:
  %en.addr = alloca ptr, align 8
  store ptr %en, ptr %en.addr, align 8
  %0 = load ptr, ptr %en.addr, align 8
  %context = getelementptr inbounds %struct.UEnumeration, ptr %0, i32 0, i32 1
  %1 = load ptr, ptr %context, align 8
  %cmp = icmp ne ptr %1, null
  br i1 %cmp, label %if.then, label %if.end

if.then:                                          ; preds = %entry
  %2 = load ptr, ptr %en.addr, align 8
  %context1 = getelementptr inbounds %struct.UEnumeration, ptr %2, i32 0, i32 1
  %3 = load ptr, ptr %context1, align 8
  call void @uprv_free_75(ptr noundef %3)
  br label %if.end

if.end:                                           ; preds = %if.then, %entry
  %4 = load ptr, ptr %en.addr, align 8
  call void @uprv_free_75(ptr noundef %4)
  ret void
}