; Function Attrs: mustprogress uwtable
define internal void @_ZL9enumCloseP12UEnumeration(ptr noundef %en) #0 {
entry:
  %context = getelementptr inbounds i8, ptr %en, i64 8
  %0 = load ptr, ptr %context, align 8
  %cmp.not = icmp eq ptr %0, null
  br i1 %cmp.not, label %if.end, label %if.then

if.then:                                          ; preds = %entry
  tail call void @uprv_free_75(ptr noundef nonnull %0)
  br label %if.end

if.end:                                           ; preds = %if.then, %entry
  tail call void @uprv_free_75(ptr noundef nonnull %en)
  ret void
}